; Function Attrs: nounwind uwtable
define i64 @avio_rb64(ptr noundef %0) local_unnamed_addr #3 {
  %2 = tail call i32 @avio_rb32(ptr noundef %0)
  %3 = zext i32 %2 to i64
  %4 = shl nuw i64 %3, 32
  %5 = tail call i32 @avio_rb32(ptr noundef %0)
  %6 = zext i32 %5 to i64
  %7 = or disjoint i64 %4, %6
  ret i64 %7
}